target datalayout = "e-m:e-p270:32:32-p271:32:32-p272:64:64-i64:64-i128:128-f80:128-n8:16:32:64-S128"
target triple = "x86_64-pc-linux-gnu"

%struct._zval_struct = type { %union._zend_value, %union.anon, %union.anon.3 }
%union._zend_value = type { i64 }
%union.anon = type { i32 }
%union.anon.3 = type { i32 }
%struct._zend_refcounted_h = type { i32, %union.anon.4 }
%union.anon.4 = type { i32 }
%struct.anon.1 = type { i8, i8, %union.anon.2 }
%union.anon.2 = type { i16 }
%struct._zend_refcounted = type { %struct._zend_refcounted_h }
%struct._zend_string = type { %struct._zend_refcounted_h, i64, i64, [1 x i8] }

; Function Attrs: alwaysinline nounwind uwtable
define internal ptr @zend_string_copy(ptr noundef %0) #1 {
  %2 = alloca ptr, align 8
  store ptr %0, ptr %2, align 8, !tbaa !31
  %3 = load ptr, ptr %2, align 8, !tbaa !31
  %4 = getelementptr inbounds nuw %struct._zend_string, ptr %3, i32 0, i32 0
  %5 = getelementptr inbounds nuw %struct._zend_refcounted_h, ptr %4, i32 0, i32 1
  %6 = load i32, ptr %5, align 4, !tbaa !17
  %7 = call i32 @zval_gc_flags(i32 noundef %6)
  %8 = and i32 %7, 64
  %9 = icmp ne i32 %8, 0
  br i1 %9, label %14, label %10

10:                                               ; preds = %1
  %11 = load ptr, ptr %2, align 8, !tbaa !31
  %12 = getelementptr inbounds nuw %struct._zend_string, ptr %11, i32 0, i32 0
  %13 = call i32 @zend_gc_addref(ptr noundef %12)
  br label %14

14:                                               ; preds = %10, %1
  %15 = load ptr, ptr %2, align 8, !tbaa !31
  ret ptr %15
}

; Function Attrs: alwaysinline nounwind uwtable
define internal i32 @zend_gc_addref(ptr noundef %0) #1 {
  %2 = alloca ptr, align 8
  store ptr %0, ptr %2, align 8, !tbaa !35
  br label %3

3:                                                ; preds = %1
  br label %4

4:                                                ; preds = %3
  %5 = load ptr, ptr %2, align 8, !tbaa !35
  %6 = getelementptr inbounds nuw %struct._zend_refcounted_h, ptr %5, i32 0, i32 0
  %7 = load i32, ptr %6, align 4, !tbaa !37
  %8 = add i32 %7, 1
  store i32 %8, ptr %6, align 4, !tbaa !37
  ret i32 %8
}

; Function Attrs: alwaysinline nounwind uwtable
define internal i32 @zval_gc_flags(i32 noundef %0) #1 {
  %2 = alloca i32, align 4
  store i32 %0, ptr %2, align 4, !tbaa !29
  %3 = load i32, ptr %2, align 4, !tbaa !29
  %4 = lshr i32 %3, 0
  %5 = and i32 %4, 1008
  ret i32 %5
}

; Function Attrs: alwaysinline nounwind uwtable
define internal ptr @zval_get_string(ptr noundef %0) #1 {
  %2 = alloca ptr, align 8
  store ptr %0, ptr %2, align 8, !tbaa !9
  %3 = load ptr, ptr %2, align 8, !tbaa !9
  %4 = call zeroext i8 @zval_get_type(ptr noundef %3)
  %5 = zext i8 %4 to i32
  %6 = icmp eq i32 %5, 6
  %7 = xor i1 %6, true
  %8 = xor i1 %7, true
  %9 = zext i1 %8 to i32
  %10 = sext i32 %9 to i64
  %11 = call i64 @llvm.expect.i64(i64 %10, i64 1)
  %12 = icmp ne i64 %11, 0
  br i1 %12, label %13, label %18

13:                                               ; preds = %1
  %14 = load ptr, ptr %2, align 8, !tbaa !9
  %15 = getelementptr inbounds nuw %struct._zval_struct, ptr %14, i32 0, i32 0
  %16 = load ptr, ptr %15, align 8, !tbaa !17
  %17 = call ptr @zend_string_copy(ptr noundef %16)
  br label %21

18:                                               ; preds = %1
  %19 = load ptr, ptr %2, align 8, !tbaa !9
  %20 = call ptr @zval_get_string_func(ptr noundef %19)
  br label %21

21:                                               ; preds = %18, %13
  %22 = phi ptr [ %17, %13 ], [ %20, %18 ]
  ret ptr %22
}

; Function Attrs: alwaysinline nounwind uwtable
define internal zeroext i8 @zval_get_type(ptr noundef %0) #1 {
  %2 = alloca ptr, align 8
  store ptr %0, ptr %2, align 8, !tbaa !9
  %3 = load ptr, ptr %2, align 8, !tbaa !9
  %4 = getelementptr inbounds nuw %struct._zval_struct, ptr %3, i32 0, i32 1
  %5 = getelementptr inbounds nuw %struct.anon.1, ptr %4, i32 0, i32 0
  %6 = load i8, ptr %5, align 8, !tbaa !17
  ret i8 %6
}

; Function Attrs: alwaysinline nounwind uwtable
define internal double @zval_get_double(ptr noundef %0) #1 {
  %2 = alloca ptr, align 8
  store ptr %0, ptr %2, align 8, !tbaa !9
  %3 = load ptr, ptr %2, align 8, !tbaa !9
  %4 = call zeroext i8 @zval_get_type(ptr noundef %3)
  %5 = zext i8 %4 to i32
  %6 = icmp eq i32 %5, 5
  %7 = xor i1 %6, true
  %8 = xor i1 %7, true
  %9 = zext i1 %8 to i32
  %10 = sext i32 %9 to i64
  %11 = call i64 @llvm.expect.i64(i64 %10, i64 1)
  %12 = icmp ne i64 %11, 0
  br i1 %12, label %13, label %17

13:                                               ; preds = %1
  %14 = load ptr, ptr %2, align 8, !tbaa !9
  %15 = getelementptr inbounds nuw %struct._zval_struct, ptr %14, i32 0, i32 0
  %16 = load double, ptr %15, align 8, !tbaa !17
  br label %20

17:                                               ; preds = %1
  %18 = load ptr, ptr %2, align 8, !tbaa !9
  %19 = call double @zval_get_double_func(ptr noundef %18)
  br label %20

20:                                               ; preds = %17, %13
  %21 = phi double [ %16, %13 ], [ %19, %17 ]
  ret double %21
}

; Function Attrs: alwaysinline nounwind uwtable
define internal i64 @zval_get_long(ptr noundef %0) #1 {
  %2 = alloca ptr, align 8
  store ptr %0, ptr %2, align 8, !tbaa !9
  %3 = load ptr, ptr %2, align 8, !tbaa !9
  %4 = call zeroext i8 @zval_get_type(ptr noundef %3)
  %5 = zext i8 %4 to i32
  %6 = icmp eq i32 %5, 4
  %7 = xor i1 %6, true
  %8 = xor i1 %7, true
  %9 = zext i1 %8 to i32
  %10 = sext i32 %9 to i64
  %11 = call i64 @llvm.expect.i64(i64 %10, i64 1)
  %12 = icmp ne i64 %11, 0
  br i1 %12, label %13, label %17

13:                                               ; preds = %1
  %14 = load ptr, ptr %2, align 8, !tbaa !9
  %15 = getelementptr inbounds nuw %struct._zval_struct, ptr %14, i32 0, i32 0
  %16 = load i64, ptr %15, align 8, !tbaa !17
  br label %20

17:                                               ; preds = %1
  %18 = load ptr, ptr %2, align 8, !tbaa !9
  %19 = call i64 @zval_get_long_func(ptr noundef %18, i1 noundef zeroext false)
  br label %20

20:                                               ; preds = %17, %13
  %21 = phi i64 [ %16, %13 ], [ %19, %17 ]
  ret i64 %21
}

; Function Attrs: nounwind uwtable
define hidden i32 @zend_optimizer_eval_cast(ptr noundef %0, i32 noundef %1, ptr noundef %2) #0 {
  %4 = alloca i32, align 4
  %5 = alloca ptr, align 8
  %6 = alloca i32, align 4
  %7 = alloca ptr, align 8
  %8 = alloca ptr, align 8
  %9 = alloca ptr, align 8
  %10 = alloca ptr, align 8
  %11 = alloca ptr, align 8
  %12 = alloca ptr, align 8
  %13 = alloca ptr, align 8
  %14 = alloca ptr, align 8
  %15 = alloca i32, align 4
  store ptr %0, ptr %5, align 8, !tbaa !9
  store i32 %1, ptr %6, align 4, !tbaa !29
  store ptr %2, ptr %7, align 8, !tbaa !9
  %16 = load i32, ptr %6, align 4, !tbaa !29
  switch i32 %16, label %109 [
    i32 1, label %17
    i32 18, label %22
    i32 4, label %30
    i32 5, label %40
    i32 6, label %50
    i32 7, label %80
  ]

17:                                               ; preds = %3
  br label %18

18:                                               ; preds = %17
  %19 = load ptr, ptr %5, align 8, !tbaa !9
  %20 = getelementptr inbounds nuw %struct._zval_struct, ptr %19, i32 0, i32 1
  store i32 1, ptr %20, align 8, !tbaa !17
  br label %21

21:                                               ; preds = %18
  store i32 0, ptr %4, align 4
  br label %110

22:                                               ; preds = %3
  br label %23

23:                                               ; preds = %22
  %24 = load ptr, ptr %7, align 8, !tbaa !9
  %25 = call zeroext i1 @zend_is_true(ptr noundef %24)
  %26 = select i1 %25, i32 3, i32 2
  %27 = load ptr, ptr %5, align 8, !tbaa !9
  %28 = getelementptr inbounds nuw %struct._zval_struct, ptr %27, i32 0, i32 1
  store i32 %26, ptr %28, align 8, !tbaa !17
  br label %29

29:                                               ; preds = %23
  store i32 0, ptr %4, align 4
  br label %110

30:                                               ; preds = %3
  br label %31

31:                                               ; preds = %30
  call void @llvm.lifetime.start.p0(i64 8, ptr %8) #13
  %32 = load ptr, ptr %5, align 8, !tbaa !9
  store ptr %32, ptr %8, align 8, !tbaa !9
  %33 = load ptr, ptr %7, align 8, !tbaa !9
  %34 = call i64 @zval_get_long(ptr noundef %33)
  %35 = load ptr, ptr %8, align 8, !tbaa !9
  %36 = getelementptr inbounds nuw %struct._zval_struct, ptr %35, i32 0, i32 0
  store i64 %34, ptr %36, align 8, !tbaa !17
  %37 = load ptr, ptr %8, align 8, !tbaa !9
  %38 = getelementptr inbounds nuw %struct._zval_struct, ptr %37, i32 0, i32 1
  store i32 4, ptr %38, align 8, !tbaa !17
  call void @llvm.lifetime.end.p0(i64 8, ptr %8) #13
  br label %39

39:                                               ; preds = %31
  store i32 0, ptr %4, align 4
  br label %110

40:                                               ; preds = %3
  br label %41

41:                                               ; preds = %40
  call void @llvm.lifetime.start.p0(i64 8, ptr %9) #13
  %42 = load ptr, ptr %5, align 8, !tbaa !9
  store ptr %42, ptr %9, align 8, !tbaa !9
  %43 = load ptr, ptr %7, align 8, !tbaa !9
  %44 = call double @zval_get_double(ptr noundef %43)
  %45 = load ptr, ptr %9, align 8, !tbaa !9
  %46 = getelementptr inbounds nuw %struct._zval_struct, ptr %45, i32 0, i32 0
  store double %44, ptr %46, align 8, !tbaa !17
  %47 = load ptr, ptr %9, align 8, !tbaa !9
  %48 = getelementptr inbounds nuw %struct._zval_struct, ptr %47, i32 0, i32 1
  store i32 5, ptr %48, align 8, !tbaa !17
  call void @llvm.lifetime.end.p0(i64 8, ptr %9) #13
  br label %49

49:                                               ; preds = %41
  store i32 0, ptr %4, align 4
  br label %110

50:                                               ; preds = %3
  %51 = load ptr, ptr %7, align 8, !tbaa !9
  %52 = call zeroext i8 @zval_get_type(ptr noundef %51)
  %53 = zext i8 %52 to i32
  %54 = icmp ne i32 %53, 7
  br i1 %54, label %55, label %79

55:                                               ; preds = %50
  %56 = load ptr, ptr %7, align 8, !tbaa !9
  %57 = call zeroext i8 @zval_get_type(ptr noundef %56)
  %58 = zext i8 %57 to i32
  %59 = icmp ne i32 %58, 5
  br i1 %59, label %60, label %79

60:                                               ; preds = %55
  br label %61

61:                                               ; preds = %60
  call void @llvm.lifetime.start.p0(i64 8, ptr %10) #13
  %62 = load ptr, ptr %5, align 8, !tbaa !9
  store ptr %62, ptr %10, align 8, !tbaa !9
  call void @llvm.lifetime.start.p0(i64 8, ptr %11) #13
  %63 = load ptr, ptr %7, align 8, !tbaa !9
  %64 = call ptr @zval_get_string(ptr noundef %63)
  store ptr %64, ptr %11, align 8, !tbaa !31
  %65 = load ptr, ptr %11, align 8, !tbaa !31
  %66 = load ptr, ptr %10, align 8, !tbaa !9
  %67 = getelementptr inbounds nuw %struct._zval_struct, ptr %66, i32 0, i32 0
  store ptr %65, ptr %67, align 8, !tbaa !17
  %68 = load ptr, ptr %11, align 8, !tbaa !31
  %69 = getelementptr inbounds nuw %struct._zend_string, ptr %68, i32 0, i32 0
  %70 = getelementptr inbounds nuw %struct._zend_refcounted_h, ptr %69, i32 0, i32 1
  %71 = load i32, ptr %70, align 4, !tbaa !17
  %72 = call i32 @zval_gc_flags(i32 noundef %71)
  %73 = and i32 %72, 64
  %74 = icmp ne i32 %73, 0
  %75 = select i1 %74, i32 6, i32 262
  %76 = load ptr, ptr %10, align 8, !tbaa !9
  %77 = getelementptr inbounds nuw %struct._zval_struct, ptr %76, i32 0, i32 1
  store i32 %75, ptr %77, align 8, !tbaa !17
  call void @llvm.lifetime.end.p0(i64 8, ptr %11) #13
  call void @llvm.lifetime.end.p0(i64 8, ptr %10) #13
  br label %78

78:                                               ; preds = %61
  store i32 0, ptr %4, align 4
  br label %110

79:                                               ; preds = %55, %50
  br label %109

80:                                               ; preds = %3
  br label %81

81:                                               ; preds = %80
  call void @llvm.lifetime.start.p0(i64 8, ptr %12) #13
  %82 = load ptr, ptr %5, align 8, !tbaa !9
  store ptr %82, ptr %12, align 8, !tbaa !9
  call void @llvm.lifetime.start.p0(i64 8, ptr %13) #13
  %83 = load ptr, ptr %7, align 8, !tbaa !9
  store ptr %83, ptr %13, align 8, !tbaa !9
  call void @llvm.lifetime.start.p0(i64 8, ptr %14) #13
  %84 = load ptr, ptr %13, align 8, !tbaa !9
  %85 = getelementptr inbounds nuw %struct._zval_struct, ptr %84, i32 0, i32 0
  %86 = load ptr, ptr %85, align 8, !tbaa !17
  store ptr %86, ptr %14, align 8, !tbaa !33
  call void @llvm.lifetime.start.p0(i64 4, ptr %15) #13
  %87 = load ptr, ptr %13, align 8, !tbaa !9
  %88 = getelementptr inbounds nuw %struct._zval_struct, ptr %87, i32 0, i32 1
  %89 = load i32, ptr %88, align 8, !tbaa !17
  store i32 %89, ptr %15, align 4, !tbaa !29
  br label %90

90:                                               ; preds = %81
  %91 = load ptr, ptr %14, align 8, !tbaa !33
  %92 = load ptr, ptr %12, align 8, !tbaa !9
  %93 = getelementptr inbounds nuw %struct._zval_struct, ptr %92, i32 0, i32 0
  store ptr %91, ptr %93, align 8, !tbaa !17
  %94 = load i32, ptr %15, align 4, !tbaa !29
  %95 = load ptr, ptr %12, align 8, !tbaa !9
  %96 = getelementptr inbounds nuw %struct._zval_struct, ptr %95, i32 0, i32 1
  store i32 %94, ptr %96, align 8, !tbaa !17
  br label %97

97:                                               ; preds = %90
  br label %98

98:                                               ; preds = %97
  %99 = load i32, ptr %15, align 4, !tbaa !29
  %100 = and i32 %99, 65280
  %101 = icmp ne i32 %100, 0
  br i1 %101, label %102, label %106

102:                                              ; preds = %98
  %103 = load ptr, ptr %14, align 8, !tbaa !33
  %104 = getelementptr inbounds nuw %struct._zend_refcounted, ptr %103, i32 0, i32 0
  %105 = call i32 @zend_gc_addref(ptr noundef %104)
  br label %106

106:                                              ; preds = %102, %98
  call void @llvm.lifetime.end.p0(i64 4, ptr %15) #13
  call void @llvm.lifetime.end.p0(i64 8, ptr %14) #13
  call void @llvm.lifetime.end.p0(i64 8, ptr %13) #13
  call void @llvm.lifetime.end.p0(i64 8, ptr %12) #13
  br label %107

107:                                              ; preds = %106
  %108 = load ptr, ptr %5, align 8, !tbaa !9
  call void @convert_to_array(ptr noundef %108)
  store i32 0, ptr %4, align 4
  br label %110

109:                                              ; preds = %3, %79
  store i32 -1, ptr %4, align 4
  br label %110

110:                                              ; preds = %109, %107, %78, %49, %39, %29, %21
  %111 = load i32, ptr %4, align 4
  ret i32 %111
}