; Function Attrs: nounwind uwtable
define hidden range(i32 -1, 1) i32 @zend_optimizer_eval_cast(ptr noundef %0, i32 noundef %1, ptr noundef %2) local_unnamed_addr #0 {
  switch i32 %1, label %59 [
    i32 1, label %4
    i32 18, label %6
    i32 4, label %10
    i32 5, label %20
    i32 6, label %30
    i32 7, label %49
  ]

4:                                                ; preds = %3
  %5 = getelementptr inbounds nuw i8, ptr %0, i64 8
  store i32 1, ptr %5, align 8, !tbaa !20
  br label %59

6:                                                ; preds = %3
  %7 = tail call zeroext i1 @zend_is_true(ptr noundef %2) #20
  %8 = select i1 %7, i32 3, i32 2
  %9 = getelementptr inbounds nuw i8, ptr %0, i64 8
  store i32 %8, ptr %9, align 8, !tbaa !20
  br label %59

10:                                               ; preds = %3
  %11 = getelementptr inbounds nuw i8, ptr %2, i64 8
  %12 = load i8, ptr %11, align 8, !tbaa !20
  %13 = icmp eq i8 %12, 4
  br i1 %13, label %14, label %16, !prof !18

14:                                               ; preds = %10
  %15 = load i64, ptr %2, align 8, !tbaa !20
  br label %zval_get_long.exit

16:                                               ; preds = %10
  %17 = tail call i64 @zval_get_long_func(ptr noundef nonnull %2, i1 noundef zeroext false) #20
  br label %zval_get_long.exit

zval_get_long.exit:                               ; preds = %14, %16
  %18 = phi i64 [ %15, %14 ], [ %17, %16 ]
  store i64 %18, ptr %0, align 8, !tbaa !20
  %19 = getelementptr inbounds nuw i8, ptr %0, i64 8
  store i32 4, ptr %19, align 8, !tbaa !20
  br label %59

20:                                               ; preds = %3
  %21 = getelementptr inbounds nuw i8, ptr %2, i64 8
  %22 = load i8, ptr %21, align 8, !tbaa !20
  %23 = icmp eq i8 %22, 5
  br i1 %23, label %24, label %26, !prof !18

24:                                               ; preds = %20
  %25 = load double, ptr %2, align 8, !tbaa !20
  br label %zval_get_double.exit

26:                                               ; preds = %20
  %27 = tail call double @zval_get_double_func(ptr noundef nonnull %2) #20
  br label %zval_get_double.exit

zval_get_double.exit:                             ; preds = %24, %26
  %28 = phi double [ %25, %24 ], [ %27, %26 ]
  store double %28, ptr %0, align 8, !tbaa !20
  %29 = getelementptr inbounds nuw i8, ptr %0, i64 8
  store i32 5, ptr %29, align 8, !tbaa !20
  br label %59

30:                                               ; preds = %3
  %31 = getelementptr inbounds nuw i8, ptr %2, i64 8
  %32 = load i8, ptr %31, align 8, !tbaa !20
  switch i8 %32, label %41 [
    i8 7, label %59
    i8 5, label %59
    i8 6, label %33
  ], !prof !24

33:                                               ; preds = %30
  %34 = load ptr, ptr %2, align 8, !tbaa !20
  %35 = getelementptr inbounds nuw i8, ptr %34, i64 4
  %36 = load i32, ptr %35, align 4, !tbaa !20
  %37 = and i32 %36, 64
  %.not.i = icmp eq i32 %37, 0
  br i1 %.not.i, label %38, label %zval_get_string.exit

38:                                               ; preds = %33
  %39 = load i32, ptr %34, align 4, !tbaa !21
  %40 = add i32 %39, 1
  store i32 %40, ptr %34, align 4, !tbaa !21
  br label %zval_get_string.exit

41:                                               ; preds = %30
  %42 = tail call ptr @zval_get_string_func(ptr noundef nonnull %2) #20
  br label %zval_get_string.exit

zval_get_string.exit:                             ; preds = %38, %33, %41
  %43 = phi ptr [ %42, %41 ], [ %34, %33 ], [ %34, %38 ]
  store ptr %43, ptr %0, align 8, !tbaa !20
  %44 = getelementptr inbounds nuw i8, ptr %43, i64 4
  %45 = load i32, ptr %44, align 4, !tbaa !20
  %46 = and i32 %45, 64
  %.not33 = icmp eq i32 %46, 0
  %47 = select i1 %.not33, i32 262, i32 6
  %48 = getelementptr inbounds nuw i8, ptr %0, i64 8
  store i32 %47, ptr %48, align 8, !tbaa !20
  br label %59

49:                                               ; preds = %3
  %50 = load ptr, ptr %2, align 8, !tbaa !20
  %51 = getelementptr inbounds nuw i8, ptr %2, i64 8
  %52 = load i32, ptr %51, align 8, !tbaa !20
  store ptr %50, ptr %0, align 8, !tbaa !20
  %53 = getelementptr inbounds nuw i8, ptr %0, i64 8
  store i32 %52, ptr %53, align 8, !tbaa !20
  %54 = and i32 %52, 65280
  %.not = icmp eq i32 %54, 0
  br i1 %.not, label %58, label %55

55:                                               ; preds = %49
  %56 = load i32, ptr %50, align 4, !tbaa !21
  %57 = add i32 %56, 1
  store i32 %57, ptr %50, align 4, !tbaa !21
  br label %58

58:                                               ; preds = %55, %49
  tail call void @convert_to_array(ptr noundef nonnull %0) #20
  br label %59

59:                                               ; preds = %30, %30, %3, %58, %zval_get_string.exit, %zval_get_double.exit, %zval_get_long.exit, %6, %4
  %.0 = phi i32 [ 0, %58 ], [ 0, %zval_get_string.exit ], [ 0, %zval_get_double.exit ], [ 0, %zval_get_long.exit ], [ 0, %6 ], [ 0, %4 ], [ -1, %30 ], [ -1, %3 ], [ -1, %30 ]
  ret i32 %.0
}